target datalayout = "e-m:e-p270:32:32-p271:32:32-p272:64:64-i64:64-i128:128-f80:128-n8:16:32:64-S128"
target triple = "x86_64-pc-linux-gnu"

%"struct.dmg_fp::Bigint" = type { ptr, i32, i32, i32, i32, [1 x i32] }

@_ZN6dmg_fpL8freelistE = internal global [8 x ptr] zeroinitializer, align 16
@_ZL9pmem_next = internal global ptr @_ZL11private_mem, align 8
@_ZL11private_mem = internal global [288 x double] zeroinitializer, align 16

; Function Attrs: mustprogress nounwind uwtable
define internal void @_ZN6dmg_fpL5BfreeEPNS_6BigintE(ptr noundef %0) #2 {
  %2 = alloca ptr, align 8
  store ptr %0, ptr %2, align 8, !tbaa !30
  %3 = load ptr, ptr %2, align 8, !tbaa !30
  %4 = icmp ne ptr %3, null
  br i1 %4, label %5, label %28

5:                                                ; preds = %1
  %6 = load ptr, ptr %2, align 8, !tbaa !30
  %7 = getelementptr inbounds nuw %"struct.dmg_fp::Bigint", ptr %6, i32 0, i32 1
  %8 = load i32, ptr %7, align 8, !tbaa !40
  %9 = icmp sgt i32 %8, 7
  br i1 %9, label %10, label %12

10:                                               ; preds = %5
  %11 = load ptr, ptr %2, align 8, !tbaa !30
  call void @free(ptr noundef %11) #9
  br label %27

12:                                               ; preds = %5
  %13 = load ptr, ptr %2, align 8, !tbaa !30
  %14 = getelementptr inbounds nuw %"struct.dmg_fp::Bigint", ptr %13, i32 0, i32 1
  %15 = load i32, ptr %14, align 8, !tbaa !40
  %16 = sext i32 %15 to i64
  %17 = getelementptr inbounds [8 x ptr], ptr @_ZN6dmg_fpL8freelistE, i64 0, i64 %16
  %18 = load ptr, ptr %17, align 8, !tbaa !30
  %19 = load ptr, ptr %2, align 8, !tbaa !30
  %20 = getelementptr inbounds nuw %"struct.dmg_fp::Bigint", ptr %19, i32 0, i32 0
  store ptr %18, ptr %20, align 8, !tbaa !54
  %21 = load ptr, ptr %2, align 8, !tbaa !30
  %22 = load ptr, ptr %2, align 8, !tbaa !30
  %23 = getelementptr inbounds nuw %"struct.dmg_fp::Bigint", ptr %22, i32 0, i32 1
  %24 = load i32, ptr %23, align 8, !tbaa !40
  %25 = sext i32 %24 to i64
  %26 = getelementptr inbounds [8 x ptr], ptr @_ZN6dmg_fpL8freelistE, i64 0, i64 %25
  store ptr %21, ptr %26, align 8, !tbaa !30
  br label %27

27:                                               ; preds = %12, %10
  br label %28

28:                                               ; preds = %27, %1
  ret void
}

; Function Attrs: mustprogress nounwind uwtable
define internal noundef ptr @_ZN6dmg_fpL6BallocEi(i32 noundef %0) #2 {
  %2 = alloca i32, align 4
  %3 = alloca i32, align 4
  %4 = alloca ptr, align 8
  %5 = alloca i32, align 4
  store i32 %0, ptr %2, align 4, !tbaa !14
  call void @llvm.lifetime.start.p0(i64 4, ptr %3) #9
  call void @llvm.lifetime.start.p0(i64 8, ptr %4) #9
  call void @llvm.lifetime.start.p0(i64 4, ptr %5) #9
  %6 = load i32, ptr %2, align 4, !tbaa !14
  %7 = icmp sle i32 %6, 7
  br i1 %7, label %8, label %25

8:                                                ; preds = %1
  %9 = load i32, ptr %2, align 4, !tbaa !14
  %10 = sext i32 %9 to i64
  %11 = getelementptr inbounds [8 x ptr], ptr @_ZN6dmg_fpL8freelistE, i64 0, i64 %10
  %12 = load ptr, ptr %11, align 8, !tbaa !30
  %13 = icmp ne ptr %12, null
  br i1 %13, label %14, label %25

14:                                               ; preds = %8
  %15 = load i32, ptr %2, align 4, !tbaa !14
  %16 = sext i32 %15 to i64
  %17 = getelementptr inbounds [8 x ptr], ptr @_ZN6dmg_fpL8freelistE, i64 0, i64 %16
  %18 = load ptr, ptr %17, align 8, !tbaa !30
  store ptr %18, ptr %4, align 8, !tbaa !30
  %19 = load ptr, ptr %4, align 8, !tbaa !30
  %20 = getelementptr inbounds nuw %"struct.dmg_fp::Bigint", ptr %19, i32 0, i32 0
  %21 = load ptr, ptr %20, align 8, !tbaa !54
  %22 = load i32, ptr %2, align 4, !tbaa !14
  %23 = sext i32 %22 to i64
  %24 = getelementptr inbounds [8 x ptr], ptr @_ZN6dmg_fpL8freelistE, i64 0, i64 %23
  store ptr %21, ptr %24, align 8, !tbaa !30
  br label %66

25:                                               ; preds = %8, %1
  %26 = load i32, ptr %2, align 4, !tbaa !14
  %27 = shl i32 1, %26
  store i32 %27, ptr %3, align 4, !tbaa !14
  %28 = load i32, ptr %3, align 4, !tbaa !14
  %29 = sub nsw i32 %28, 1
  %30 = sext i32 %29 to i64
  %31 = mul i64 %30, 4
  %32 = add i64 32, %31
  %33 = add i64 %32, 8
  %34 = sub i64 %33, 1
  %35 = udiv i64 %34, 8
  %36 = trunc i64 %35 to i32
  store i32 %36, ptr %5, align 4, !tbaa !14
  %37 = load i32, ptr %2, align 4, !tbaa !14
  %38 = icmp sle i32 %37, 7
  br i1 %38, label %39, label %54

39:                                               ; preds = %25
  %40 = load ptr, ptr @_ZL9pmem_next, align 8, !tbaa !55
  %41 = ptrtoint ptr %40 to i64
  %42 = sub i64 %41, ptrtoint (ptr @_ZL11private_mem to i64)
  %43 = sdiv exact i64 %42, 8
  %44 = load i32, ptr %5, align 4, !tbaa !14
  %45 = zext i32 %44 to i64
  %46 = add nsw i64 %43, %45
  %47 = icmp sle i64 %46, 288
  br i1 %47, label %48, label %54

48:                                               ; preds = %39
  %49 = load ptr, ptr @_ZL9pmem_next, align 8, !tbaa !55
  store ptr %49, ptr %4, align 8, !tbaa !30
  %50 = load i32, ptr %5, align 4, !tbaa !14
  %51 = load ptr, ptr @_ZL9pmem_next, align 8, !tbaa !55
  %52 = zext i32 %50 to i64
  %53 = getelementptr inbounds nuw double, ptr %51, i64 %52
  store ptr %53, ptr @_ZL9pmem_next, align 8, !tbaa !55
  br label %59

54:                                               ; preds = %39, %25
  %55 = load i32, ptr %5, align 4, !tbaa !14
  %56 = zext i32 %55 to i64
  %57 = mul i64 %56, 8
  %58 = call noalias ptr @malloc(i64 noundef %57) #11
  store ptr %58, ptr %4, align 8, !tbaa !30
  br label %59

59:                                               ; preds = %54, %48
  %60 = load i32, ptr %2, align 4, !tbaa !14
  %61 = load ptr, ptr %4, align 8, !tbaa !30
  %62 = getelementptr inbounds nuw %"struct.dmg_fp::Bigint", ptr %61, i32 0, i32 1
  store i32 %60, ptr %62, align 8, !tbaa !40
  %63 = load i32, ptr %3, align 4, !tbaa !14
  %64 = load ptr, ptr %4, align 8, !tbaa !30
  %65 = getelementptr inbounds nuw %"struct.dmg_fp::Bigint", ptr %64, i32 0, i32 2
  store i32 %63, ptr %65, align 4, !tbaa !57
  br label %66

66:                                               ; preds = %59, %14
  %67 = load ptr, ptr %4, align 8, !tbaa !30
  %68 = getelementptr inbounds nuw %"struct.dmg_fp::Bigint", ptr %67, i32 0, i32 4
  store i32 0, ptr %68, align 4, !tbaa !42
  %69 = load ptr, ptr %4, align 8, !tbaa !30
  %70 = getelementptr inbounds nuw %"struct.dmg_fp::Bigint", ptr %69, i32 0, i32 3
  store i32 0, ptr %70, align 8, !tbaa !43
  %71 = load ptr, ptr %4, align 8, !tbaa !30
  call void @llvm.lifetime.end.p0(i64 4, ptr %5) #9
  call void @llvm.lifetime.end.p0(i64 8, ptr %4) #9
  call void @llvm.lifetime.end.p0(i64 4, ptr %3) #9
  ret ptr %71
}

; Function Attrs: mustprogress nounwind uwtable
define internal noundef ptr @_ZN6dmg_fpL6lshiftEPNS_6BigintEi(ptr noundef %0, i32 noundef %1) #2 {
  %3 = alloca ptr, align 8
  %4 = alloca i32, align 4
  %5 = alloca i32, align 4
  %6 = alloca i32, align 4
  %7 = alloca i32, align 4
  %8 = alloca i32, align 4
  %9 = alloca ptr, align 8
  %10 = alloca ptr, align 8
  %11 = alloca ptr, align 8
  %12 = alloca ptr, align 8
  %13 = alloca i32, align 4
  store ptr %0, ptr %3, align 8, !tbaa !30
  store i32 %1, ptr %4, align 4, !tbaa !14
  call void @llvm.lifetime.start.p0(i64 4, ptr %5) #9
  call void @llvm.lifetime.start.p0(i64 4, ptr %6) #9
  call void @llvm.lifetime.start.p0(i64 4, ptr %7) #9
  call void @llvm.lifetime.start.p0(i64 4, ptr %8) #9
  call void @llvm.lifetime.start.p0(i64 8, ptr %9) #9
  call void @llvm.lifetime.start.p0(i64 8, ptr %10) #9
  call void @llvm.lifetime.start.p0(i64 8, ptr %11) #9
  call void @llvm.lifetime.start.p0(i64 8, ptr %12) #9
  call void @llvm.lifetime.start.p0(i64 4, ptr %13) #9
  %14 = load i32, ptr %4, align 4, !tbaa !14
  %15 = ashr i32 %14, 5
  store i32 %15, ptr %7, align 4, !tbaa !14
  %16 = load ptr, ptr %3, align 8, !tbaa !30
  %17 = getelementptr inbounds nuw %"struct.dmg_fp::Bigint", ptr %16, i32 0, i32 1
  %18 = load i32, ptr %17, align 8, !tbaa !40
  store i32 %18, ptr %6, align 4, !tbaa !14
  %19 = load i32, ptr %7, align 4, !tbaa !14
  %20 = load ptr, ptr %3, align 8, !tbaa !30
  %21 = getelementptr inbounds nuw %"struct.dmg_fp::Bigint", ptr %20, i32 0, i32 4
  %22 = load i32, ptr %21, align 4, !tbaa !42
  %23 = add nsw i32 %19, %22
  %24 = add nsw i32 %23, 1
  store i32 %24, ptr %8, align 4, !tbaa !14
  %25 = load ptr, ptr %3, align 8, !tbaa !30
  %26 = getelementptr inbounds nuw %"struct.dmg_fp::Bigint", ptr %25, i32 0, i32 2
  %27 = load i32, ptr %26, align 4, !tbaa !57
  store i32 %27, ptr %5, align 4, !tbaa !14
  br label %28

28:                                               ; preds = %35, %2
  %29 = load i32, ptr %8, align 4, !tbaa !14
  %30 = load i32, ptr %5, align 4, !tbaa !14
  %31 = icmp sgt i32 %29, %30
  br i1 %31, label %32, label %38

32:                                               ; preds = %28
  %33 = load i32, ptr %6, align 4, !tbaa !14
  %34 = add nsw i32 %33, 1
  store i32 %34, ptr %6, align 4, !tbaa !14
  br label %35

35:                                               ; preds = %32
  %36 = load i32, ptr %5, align 4, !tbaa !14
  %37 = shl i32 %36, 1
  store i32 %37, ptr %5, align 4, !tbaa !14
  br label %28, !llvm.loop !67

38:                                               ; preds = %28
  %39 = load i32, ptr %6, align 4, !tbaa !14
  %40 = call noundef ptr @_ZN6dmg_fpL6BallocEi(i32 noundef %39)
  store ptr %40, ptr %9, align 8, !tbaa !30
  %41 = load ptr, ptr %9, align 8, !tbaa !30
  %42 = getelementptr inbounds nuw %"struct.dmg_fp::Bigint", ptr %41, i32 0, i32 5
  %43 = getelementptr inbounds [1 x i32], ptr %42, i64 0, i64 0
  store ptr %43, ptr %11, align 8, !tbaa !58
  store i32 0, ptr %5, align 4, !tbaa !14
  br label %44

44:                                               ; preds = %51, %38
  %45 = load i32, ptr %5, align 4, !tbaa !14
  %46 = load i32, ptr %7, align 4, !tbaa !14
  %47 = icmp slt i32 %45, %46
  br i1 %47, label %48, label %54

48:                                               ; preds = %44
  %49 = load ptr, ptr %11, align 8, !tbaa !58
  %50 = getelementptr inbounds nuw i32, ptr %49, i32 1
  store ptr %50, ptr %11, align 8, !tbaa !58
  store i32 0, ptr %49, align 4, !tbaa !14
  br label %51

51:                                               ; preds = %48
  %52 = load i32, ptr %5, align 4, !tbaa !14
  %53 = add nsw i32 %52, 1
  store i32 %53, ptr %5, align 4, !tbaa !14
  br label %44, !llvm.loop !68

54:                                               ; preds = %44
  %55 = load ptr, ptr %3, align 8, !tbaa !30
  %56 = getelementptr inbounds nuw %"struct.dmg_fp::Bigint", ptr %55, i32 0, i32 5
  %57 = getelementptr inbounds [1 x i32], ptr %56, i64 0, i64 0
  store ptr %57, ptr %10, align 8, !tbaa !58
  %58 = load ptr, ptr %10, align 8, !tbaa !58
  %59 = load ptr, ptr %3, align 8, !tbaa !30
  %60 = getelementptr inbounds nuw %"struct.dmg_fp::Bigint", ptr %59, i32 0, i32 4
  %61 = load i32, ptr %60, align 4, !tbaa !42
  %62 = sext i32 %61 to i64
  %63 = getelementptr inbounds i32, ptr %58, i64 %62
  store ptr %63, ptr %12, align 8, !tbaa !58
  %64 = load i32, ptr %4, align 4, !tbaa !14
  %65 = and i32 %64, 31
  store i32 %65, ptr %4, align 4, !tbaa !14
  %66 = icmp ne i32 %65, 0
  br i1 %66, label %67, label %98

67:                                               ; preds = %54
  %68 = load i32, ptr %4, align 4, !tbaa !14
  %69 = sub nsw i32 32, %68
  store i32 %69, ptr %6, align 4, !tbaa !14
  store i32 0, ptr %13, align 4, !tbaa !14
  br label %70

70:                                               ; preds = %84, %67
  %71 = load ptr, ptr %10, align 8, !tbaa !58
  %72 = load i32, ptr %71, align 4, !tbaa !14
  %73 = load i32, ptr %4, align 4, !tbaa !14
  %74 = shl i32 %72, %73
  %75 = load i32, ptr %13, align 4, !tbaa !14
  %76 = or i32 %74, %75
  %77 = load ptr, ptr %11, align 8, !tbaa !58
  %78 = getelementptr inbounds nuw i32, ptr %77, i32 1
  store ptr %78, ptr %11, align 8, !tbaa !58
  store i32 %76, ptr %77, align 4, !tbaa !14
  %79 = load ptr, ptr %10, align 8, !tbaa !58
  %80 = getelementptr inbounds nuw i32, ptr %79, i32 1
  store ptr %80, ptr %10, align 8, !tbaa !58
  %81 = load i32, ptr %79, align 4, !tbaa !14
  %82 = load i32, ptr %6, align 4, !tbaa !14
  %83 = lshr i32 %81, %82
  store i32 %83, ptr %13, align 4, !tbaa !14
  br label %84

84:                                               ; preds = %70
  %85 = load ptr, ptr %10, align 8, !tbaa !58
  %86 = load ptr, ptr %12, align 8, !tbaa !58
  %87 = icmp ult ptr %85, %86
  br i1 %87, label %70, label %88, !llvm.loop !69

88:                                               ; preds = %84
  %89 = load i32, ptr %13, align 4, !tbaa !14
  %90 = load ptr, ptr %11, align 8, !tbaa !58
  store i32 %89, ptr %90, align 4, !tbaa !14
  %91 = load ptr, ptr %11, align 8, !tbaa !58
  %92 = load i32, ptr %91, align 4, !tbaa !14
  %93 = icmp ne i32 %92, 0
  br i1 %93, label %94, label %97

94:                                               ; preds = %88
  %95 = load i32, ptr %8, align 4, !tbaa !14
  %96 = add nsw i32 %95, 1
  store i32 %96, ptr %8, align 4, !tbaa !14
  br label %97

97:                                               ; preds = %94, %88
  br label %110

98:                                               ; preds = %54
  br label %99

99:                                               ; preds = %105, %98
  %100 = load ptr, ptr %10, align 8, !tbaa !58
  %101 = getelementptr inbounds nuw i32, ptr %100, i32 1
  store ptr %101, ptr %10, align 8, !tbaa !58
  %102 = load i32, ptr %100, align 4, !tbaa !14
  %103 = load ptr, ptr %11, align 8, !tbaa !58
  %104 = getelementptr inbounds nuw i32, ptr %103, i32 1
  store ptr %104, ptr %11, align 8, !tbaa !58
  store i32 %102, ptr %103, align 4, !tbaa !14
  br label %105

105:                                              ; preds = %99
  %106 = load ptr, ptr %10, align 8, !tbaa !58
  %107 = load ptr, ptr %12, align 8, !tbaa !58
  %108 = icmp ult ptr %106, %107
  br i1 %108, label %99, label %109, !llvm.loop !70

109:                                              ; preds = %105
  br label %110

110:                                              ; preds = %109, %97
  %111 = load i32, ptr %8, align 4, !tbaa !14
  %112 = sub nsw i32 %111, 1
  %113 = load ptr, ptr %9, align 8, !tbaa !30
  %114 = getelementptr inbounds nuw %"struct.dmg_fp::Bigint", ptr %113, i32 0, i32 4
  store i32 %112, ptr %114, align 4, !tbaa !42
  %115 = load ptr, ptr %3, align 8, !tbaa !30
  call void @_ZN6dmg_fpL5BfreeEPNS_6BigintE(ptr noundef %115)
  %116 = load ptr, ptr %9, align 8, !tbaa !30
  call void @llvm.lifetime.end.p0(i64 4, ptr %13) #9
  call void @llvm.lifetime.end.p0(i64 8, ptr %12) #9
  call void @llvm.lifetime.end.p0(i64 8, ptr %11) #9
  call void @llvm.lifetime.end.p0(i64 8, ptr %10) #9
  call void @llvm.lifetime.end.p0(i64 8, ptr %9) #9
  call void @llvm.lifetime.end.p0(i64 4, ptr %8) #9
  call void @llvm.lifetime.end.p0(i64 4, ptr %7) #9
  call void @llvm.lifetime.end.p0(i64 4, ptr %6) #9
  call void @llvm.lifetime.end.p0(i64 4, ptr %5) #9
  ret ptr %116
}