; Function Attrs: mustprogress nounwind uwtable
define internal fastcc noundef ptr @_ZN6dmg_fpL6lshiftEPNS_6BigintEi(ptr noundef %0, i32 noundef range(i32 -2147483593, -2147483648) %1) unnamed_addr #0 {
  %3 = ashr i32 %1, 5
  %4 = getelementptr inbounds nuw i8, ptr %0, i64 8
  %5 = load i32, ptr %4, align 8, !tbaa !34
  %6 = getelementptr inbounds nuw i8, ptr %0, i64 20
  %7 = load i32, ptr %6, align 4, !tbaa !37
  %8 = add nsw i32 %7, %3
  %9 = getelementptr inbounds nuw i8, ptr %0, i64 12
  %10 = load i32, ptr %9, align 4, !tbaa !35
  %.not52 = icmp slt i32 %8, %10
  br i1 %.not52, label %._crit_edge, label %.lr.ph

.lr.ph:                                           ; preds = %2, %.lr.ph
  %.04254 = phi i32 [ %12, %.lr.ph ], [ %10, %2 ]
  %.04553 = phi i32 [ %11, %.lr.ph ], [ %5, %2 ]
  %11 = add nsw i32 %.04553, 1
  %12 = shl i32 %.04254, 1
  %.not = icmp slt i32 %8, %12
  br i1 %.not, label %._crit_edge, label %.lr.ph, !llvm.loop !52

._crit_edge:                                      ; preds = %.lr.ph, %2
  %.045.lcssa = phi i32 [ %5, %2 ], [ %11, %.lr.ph ]
  %13 = icmp slt i32 %.045.lcssa, 8
  br i1 %13, label %14, label %20

14:                                               ; preds = %._crit_edge
  %15 = sext i32 %.045.lcssa to i64
  %16 = getelementptr inbounds [8 x ptr], ptr @_ZN6dmg_fpL8freelistE, i64 0, i64 %15
  %17 = load ptr, ptr %16, align 8, !tbaa !28
  %.not.i = icmp eq ptr %17, null
  br i1 %.not.i, label %26, label %18

18:                                               ; preds = %14
  %19 = load ptr, ptr %17, align 8, !tbaa !30
  store ptr %19, ptr %16, align 8, !tbaa !28
  br label %_ZN6dmg_fpL6BallocEi.exit

20:                                               ; preds = %._crit_edge
  %21 = shl nuw i32 1, %.045.lcssa
  %22 = add nsw i32 %21, -1
  %23 = zext nneg i32 %22 to i64
  %24 = shl nuw nsw i64 %23, 2
  %25 = add nuw nsw i64 %24, 39
  br label %41

26:                                               ; preds = %14
  %27 = shl nuw nsw i32 1, %.045.lcssa
  %28 = add nsw i32 %27, -1
  %29 = zext nneg i32 %28 to i64
  %30 = shl nuw nsw i64 %29, 2
  %31 = add nuw nsw i64 %30, 39
  %32 = lshr i64 %31, 3
  %33 = load ptr, ptr @_ZL9pmem_next, align 8, !tbaa !32
  %34 = ptrtoint ptr %33 to i64
  %35 = sub i64 %34, ptrtoint (ptr @_ZL11private_mem to i64)
  %36 = ashr exact i64 %35, 3
  %37 = add nsw i64 %36, %32
  %38 = icmp slt i64 %37, 289
  br i1 %38, label %39, label %41

39:                                               ; preds = %26
  %40 = getelementptr inbounds nuw double, ptr %33, i64 %32
  store ptr %40, ptr @_ZL9pmem_next, align 8, !tbaa !32
  br label %46

41:                                               ; preds = %26, %20
  %42 = phi i64 [ %31, %26 ], [ %25, %20 ]
  %43 = phi i32 [ %27, %26 ], [ %21, %20 ]
  %44 = and i64 %42, 34359738360
  %45 = tail call noalias ptr @malloc(i64 noundef %44) #18
  br label %46

46:                                               ; preds = %41, %39
  %47 = phi i32 [ %27, %39 ], [ %43, %41 ]
  %.1.i = phi ptr [ %33, %39 ], [ %45, %41 ]
  %48 = getelementptr inbounds nuw i8, ptr %.1.i, i64 8
  store i32 %.045.lcssa, ptr %48, align 8, !tbaa !34
  %49 = getelementptr inbounds nuw i8, ptr %.1.i, i64 12
  store i32 %47, ptr %49, align 4, !tbaa !35
  br label %_ZN6dmg_fpL6BallocEi.exit

_ZN6dmg_fpL6BallocEi.exit:                        ; preds = %18, %46
  %.0.i = phi ptr [ %17, %18 ], [ %.1.i, %46 ]
  %50 = getelementptr inbounds nuw i8, ptr %.0.i, i64 20
  store i32 0, ptr %50, align 4, !tbaa !37
  %51 = getelementptr inbounds nuw i8, ptr %.0.i, i64 16
  store i32 0, ptr %51, align 8, !tbaa !36
  %52 = getelementptr i8, ptr %.0.i, i64 24
  %53 = icmp sgt i32 %3, 0
  br i1 %53, label %.lr.ph57.preheader, label %._crit_edge58

.lr.ph57.preheader:                               ; preds = %_ZN6dmg_fpL6BallocEi.exit
  %54 = zext nneg i32 %3 to i64
  %55 = shl nuw nsw i64 %54, 2
  tail call void @llvm.memset.p0.i64(ptr align 4 %52, i8 0, i64 %55, i1 false), !tbaa !20
  %56 = add nsw i32 %3, -1
  %57 = zext nneg i32 %56 to i64
  %58 = shl nuw nsw i64 %57, 2
  %59 = getelementptr i8, ptr %.0.i, i64 %58
  %scevgep = getelementptr i8, ptr %59, i64 28
  br label %._crit_edge58

._crit_edge58:                                    ; preds = %.lr.ph57.preheader, %_ZN6dmg_fpL6BallocEi.exit
  %.039.lcssa = phi ptr [ %52, %_ZN6dmg_fpL6BallocEi.exit ], [ %scevgep, %.lr.ph57.preheader ]
  %60 = getelementptr inbounds nuw i8, ptr %0, i64 24
  %61 = load i32, ptr %6, align 4, !tbaa !37
  %62 = sext i32 %61 to i64
  %63 = getelementptr inbounds i32, ptr %60, i64 %62
  %64 = and i32 %1, 31
  %.not48 = icmp eq i32 %64, 0
  br i1 %.not48, label %.preheader, label %65

65:                                               ; preds = %._crit_edge58
  %66 = sub nuw nsw i32 32, %64
  br label %67

67:                                               ; preds = %67, %65
  %.040 = phi ptr [ %60, %65 ], [ %72, %67 ]
  %.1 = phi ptr [ %.039.lcssa, %65 ], [ %71, %67 ]
  %.0 = phi i32 [ 0, %65 ], [ %74, %67 ]
  %68 = load i32, ptr %.040, align 4, !tbaa !20
  %69 = shl i32 %68, %64
  %70 = or i32 %69, %.0
  %71 = getelementptr inbounds nuw i8, ptr %.1, i64 4
  store i32 %70, ptr %.1, align 4, !tbaa !20
  %72 = getelementptr inbounds nuw i8, ptr %.040, i64 4
  %73 = load i32, ptr %.040, align 4, !tbaa !20
  %74 = lshr i32 %73, %66
  %75 = icmp ult ptr %72, %63
  br i1 %75, label %67, label %76, !llvm.loop !53

76:                                               ; preds = %67
  store i32 %74, ptr %71, align 4, !tbaa !20
  %.not49 = icmp ne i32 %74, 0
  %77 = zext i1 %.not49 to i32
  %spec.select = add nsw i32 %8, %77
  br label %.loopexit

.preheader:                                       ; preds = %._crit_edge58, %.preheader
  %.141 = phi ptr [ %78, %.preheader ], [ %60, %._crit_edge58 ]
  %.2 = phi ptr [ %80, %.preheader ], [ %.039.lcssa, %._crit_edge58 ]
  %78 = getelementptr inbounds nuw i8, ptr %.141, i64 4
  %79 = load i32, ptr %.141, align 4, !tbaa !20
  %80 = getelementptr inbounds nuw i8, ptr %.2, i64 4
  store i32 %79, ptr %.2, align 4, !tbaa !20
  %81 = icmp ult ptr %78, %63
  br i1 %81, label %.preheader, label %.loopexit, !llvm.loop !54

.loopexit:                                        ; preds = %.preheader, %76
  %.044 = phi i32 [ %spec.select, %76 ], [ %8, %.preheader ]
  store i32 %.044, ptr %50, align 4, !tbaa !37
  %.not.i50 = icmp eq ptr %0, null
  br i1 %.not.i50, label %_ZN6dmg_fpL5BfreeEPNS_6BigintE.exit, label %82

82:                                               ; preds = %.loopexit
  %83 = load i32, ptr %4, align 8, !tbaa !34
  %84 = icmp sgt i32 %83, 7
  br i1 %84, label %85, label %86

85:                                               ; preds = %82
  tail call void @free(ptr noundef nonnull %0) #16
  br label %_ZN6dmg_fpL5BfreeEPNS_6BigintE.exit

86:                                               ; preds = %82
  %87 = sext i32 %83 to i64
  %88 = getelementptr inbounds [8 x ptr], ptr @_ZN6dmg_fpL8freelistE, i64 0, i64 %87
  %89 = load ptr, ptr %88, align 8, !tbaa !28
  store ptr %89, ptr %0, align 8, !tbaa !30
  store ptr %0, ptr %88, align 8, !tbaa !28
  br label %_ZN6dmg_fpL5BfreeEPNS_6BigintE.exit

_ZN6dmg_fpL5BfreeEPNS_6BigintE.exit:              ; preds = %.loopexit, %85, %86
  ret ptr %.0.i
}